target datalayout = "e-m:e-p270:32:32-p271:32:32-p272:64:64-i64:64-i128:128-f80:128-n8:16:32:64-S128"
target triple = "x86_64-unknown-linux-gnu"

%struct.rsa_meth_st = type { %struct.openssl_method_common_st, ptr, ptr, ptr, ptr, ptr, ptr, ptr, ptr, ptr, ptr, ptr, ptr, ptr, i32, ptr, ptr, ptr }
%struct.openssl_method_common_st = type { i32, i8 }
%struct.rsa_st = type { ptr, ptr, ptr, ptr, ptr, ptr, ptr, ptr, ptr, ptr, %struct.crypto_ex_data_st, i32, i32, %union.crypto_mutex_st, ptr, ptr, ptr, i32, ptr, ptr }
%struct.crypto_ex_data_st = type { ptr }
%union.crypto_mutex_st = type { double, [48 x i8] }

@.str = private unnamed_addr constant [120 x i8] c"generated/home/dtcxzyw/WorkSpace/Projects/compilers/llvm-opt-benchmark/bench/libquic/libquic/boringssl/crypto/rsa/rsa.c\00", align 1

; Function Attrs: nounwind uwtable
define hidden i32 @RSA_decrypt(ptr noundef %rsa, ptr noundef %out_len, ptr noundef %out, i64 noundef %max_out, ptr noundef %in, i64 noundef %in_len, i32 noundef %padding) #0 {
entry:
  %retval = alloca i32, align 4
  %rsa.addr = alloca ptr, align 8
  %out_len.addr = alloca ptr, align 8
  %out.addr = alloca ptr, align 8
  %max_out.addr = alloca i64, align 8
  %in.addr = alloca ptr, align 8
  %in_len.addr = alloca i64, align 8
  %padding.addr = alloca i32, align 4
  store ptr %rsa, ptr %rsa.addr, align 8
  store ptr %out_len, ptr %out_len.addr, align 8
  store ptr %out, ptr %out.addr, align 8
  store i64 %max_out, ptr %max_out.addr, align 8
  store ptr %in, ptr %in.addr, align 8
  store i64 %in_len, ptr %in_len.addr, align 8
  store i32 %padding, ptr %padding.addr, align 4
  %0 = load ptr, ptr %rsa.addr, align 8
  %meth = getelementptr inbounds %struct.rsa_st, ptr %0, i32 0, i32 0
  %1 = load ptr, ptr %meth, align 8
  %decrypt = getelementptr inbounds %struct.rsa_meth_st, ptr %1, i32 0, i32 9
  %2 = load ptr, ptr %decrypt, align 8
  %tobool = icmp ne ptr %2, null
  br i1 %tobool, label %if.then, label %if.end

if.then:                                          ; preds = %entry
  %3 = load ptr, ptr %rsa.addr, align 8
  %meth1 = getelementptr inbounds %struct.rsa_st, ptr %3, i32 0, i32 0
  %4 = load ptr, ptr %meth1, align 8
  %decrypt2 = getelementptr inbounds %struct.rsa_meth_st, ptr %4, i32 0, i32 9
  %5 = load ptr, ptr %decrypt2, align 8
  %6 = load ptr, ptr %rsa.addr, align 8
  %7 = load ptr, ptr %out_len.addr, align 8
  %8 = load ptr, ptr %out.addr, align 8
  %9 = load i64, ptr %max_out.addr, align 8
  %10 = load ptr, ptr %in.addr, align 8
  %11 = load i64, ptr %in_len.addr, align 8
  %12 = load i32, ptr %padding.addr, align 4
  %call = call i32 %5(ptr noundef %6, ptr noundef %7, ptr noundef %8, i64 noundef %9, ptr noundef %10, i64 noundef %11, i32 noundef %12)
  store i32 %call, ptr %retval, align 4
  br label %return

if.end:                                           ; preds = %entry
  %13 = load ptr, ptr %rsa.addr, align 8
  %14 = load ptr, ptr %out_len.addr, align 8
  %15 = load ptr, ptr %out.addr, align 8
  %16 = load i64, ptr %max_out.addr, align 8
  %17 = load ptr, ptr %in.addr, align 8
  %18 = load i64, ptr %in_len.addr, align 8
  %19 = load i32, ptr %padding.addr, align 4
  %call3 = call i32 @rsa_default_decrypt(ptr noundef %13, ptr noundef %14, ptr noundef %15, i64 noundef %16, ptr noundef %17, i64 noundef %18, i32 noundef %19)
  store i32 %call3, ptr %retval, align 4
  br label %return

return:                                           ; preds = %if.end, %if.then
  %20 = load i32, ptr %retval, align 4
  ret i32 %20
}

; Function Attrs: nounwind uwtable
define hidden i32 @RSA_size(ptr noundef %rsa) #0 {
entry:
  %retval = alloca i32, align 4
  %rsa.addr = alloca ptr, align 8
  store ptr %rsa, ptr %rsa.addr, align 8
  %0 = load ptr, ptr %rsa.addr, align 8
  %meth = getelementptr inbounds %struct.rsa_st, ptr %0, i32 0, i32 0
  %1 = load ptr, ptr %meth, align 8
  %size = getelementptr inbounds %struct.rsa_meth_st, ptr %1, i32 0, i32 4
  %2 = load ptr, ptr %size, align 8
  %tobool = icmp ne ptr %2, null
  br i1 %tobool, label %if.then, label %if.end

if.then:                                          ; preds = %entry
  %3 = load ptr, ptr %rsa.addr, align 8
  %meth1 = getelementptr inbounds %struct.rsa_st, ptr %3, i32 0, i32 0
  %4 = load ptr, ptr %meth1, align 8
  %size2 = getelementptr inbounds %struct.rsa_meth_st, ptr %4, i32 0, i32 4
  %5 = load ptr, ptr %size2, align 8
  %6 = load ptr, ptr %rsa.addr, align 8
  %call = call i64 %5(ptr noundef %6)
  %conv = trunc i64 %call to i32
  store i32 %conv, ptr %retval, align 4
  br label %return

if.end:                                           ; preds = %entry
  %7 = load ptr, ptr %rsa.addr, align 8
  %call3 = call i64 @rsa_default_size(ptr noundef %7)
  %conv4 = trunc i64 %call3 to i32
  store i32 %conv4, ptr %retval, align 4
  br label %return

return:                                           ; preds = %if.end, %if.then
  %8 = load i32, ptr %retval, align 4
  ret i32 %8
}

; Function Attrs: nounwind uwtable
define hidden i32 @RSA_private_decrypt(i64 noundef %flen, ptr noundef %from, ptr noundef %to, ptr noundef %rsa, i32 noundef %padding) #0 {
entry:
  %retval = alloca i32, align 4
  %flen.addr = alloca i64, align 8
  %from.addr = alloca ptr, align 8
  %to.addr = alloca ptr, align 8
  %rsa.addr = alloca ptr, align 8
  %padding.addr = alloca i32, align 4
  %out_len = alloca i64, align 8
  store i64 %flen, ptr %flen.addr, align 8
  store ptr %from, ptr %from.addr, align 8
  store ptr %to, ptr %to.addr, align 8
  store ptr %rsa, ptr %rsa.addr, align 8
  store i32 %padding, ptr %padding.addr, align 4
  %0 = load ptr, ptr %rsa.addr, align 8
  %1 = load ptr, ptr %to.addr, align 8
  %2 = load ptr, ptr %rsa.addr, align 8
  %call = call i32 @RSA_size(ptr noundef %2)
  %conv = zext i32 %call to i64
  %3 = load ptr, ptr %from.addr, align 8
  %4 = load i64, ptr %flen.addr, align 8
  %5 = load i32, ptr %padding.addr, align 4
  %call1 = call i32 @RSA_decrypt(ptr noundef %0, ptr noundef %out_len, ptr noundef %1, i64 noundef %conv, ptr noundef %3, i64 noundef %4, i32 noundef %5)
  %tobool = icmp ne i32 %call1, 0
  br i1 %tobool, label %if.end, label %if.then

if.then:                                          ; preds = %entry
  store i32 -1, ptr %retval, align 4
  br label %return

if.end:                                           ; preds = %entry
  %6 = load i64, ptr %out_len, align 8
  %cmp = icmp ugt i64 %6, 2147483647
  br i1 %cmp, label %if.then3, label %if.end4

if.then3:                                         ; preds = %if.end
  call void @ERR_put_error(i32 noundef 4, i32 noundef 0, i32 noundef 69, ptr noundef @.str, i32 noundef 255)
  store i32 -1, ptr %retval, align 4
  br label %return

if.end4:                                          ; preds = %if.end
  %7 = load i64, ptr %out_len, align 8
  %conv5 = trunc i64 %7 to i32
  store i32 %conv5, ptr %retval, align 4
  br label %return

return:                                           ; preds = %if.end4, %if.then3, %if.then
  %8 = load i32, ptr %retval, align 4
  ret i32 %8
}