; Function Attrs: nounwind uwtable
define hidden range(i32 -1, -2147483648) i32 @RSA_private_decrypt(i64 noundef %flen, ptr noundef %from, ptr noundef %to, ptr noundef %rsa, i32 noundef %padding) local_unnamed_addr #0 {
entry:
  %out_len = alloca i64, align 8
  %0 = load ptr, ptr %rsa, align 8
  %size.i = getelementptr inbounds nuw i8, ptr %0, i64 32
  %1 = load ptr, ptr %size.i, align 8
  %tobool.not.i = icmp eq ptr %1, null
  br i1 %tobool.not.i, label %if.end.i, label %if.then.i

if.then.i:                                        ; preds = %entry
  %call.i = tail call i64 %1(ptr noundef nonnull %rsa) #9
  br label %RSA_size.exit

if.end.i:                                         ; preds = %entry
  %call3.i = tail call i64 @rsa_default_size(ptr noundef nonnull %rsa) #9
  br label %RSA_size.exit

RSA_size.exit:                                    ; preds = %if.then.i, %if.end.i
  %retval.0.in.i = phi i64 [ %call.i, %if.then.i ], [ %call3.i, %if.end.i ]
  %conv = and i64 %retval.0.in.i, 4294967295
  %2 = load ptr, ptr %rsa, align 8
  %decrypt.i = getelementptr inbounds nuw i8, ptr %2, i64 72
  %3 = load ptr, ptr %decrypt.i, align 8
  %tobool.not.i2 = icmp eq ptr %3, null
  br i1 %tobool.not.i2, label %if.end.i6, label %if.then.i3

if.then.i3:                                       ; preds = %RSA_size.exit
  %call.i4 = call i32 %3(ptr noundef nonnull %rsa, ptr noundef nonnull %out_len, ptr noundef %to, i64 noundef %conv, ptr noundef %from, i64 noundef %flen, i32 noundef %padding) #9
  br label %RSA_decrypt.exit

if.end.i6:                                        ; preds = %RSA_size.exit
  %call3.i7 = call i32 @rsa_default_decrypt(ptr noundef nonnull %rsa, ptr noundef nonnull %out_len, ptr noundef %to, i64 noundef %conv, ptr noundef %from, i64 noundef %flen, i32 noundef %padding) #9
  br label %RSA_decrypt.exit

RSA_decrypt.exit:                                 ; preds = %if.then.i3, %if.end.i6
  %retval.0.i5 = phi i32 [ %call.i4, %if.then.i3 ], [ %call3.i7, %if.end.i6 ]
  %tobool.not = icmp eq i32 %retval.0.i5, 0
  br i1 %tobool.not, label %return, label %if.end

if.end:                                           ; preds = %RSA_decrypt.exit
  %4 = load i64, ptr %out_len, align 8
  %cmp = icmp ugt i64 %4, 2147483647
  br i1 %cmp, label %if.then3, label %if.end4

if.then3:                                         ; preds = %if.end
  call void @ERR_put_error(i32 noundef 4, i32 noundef 0, i32 noundef 69, ptr noundef nonnull @.str, i32 noundef 255) #9
  br label %return

if.end4:                                          ; preds = %if.end
  %conv5 = trunc nuw nsw i64 %4 to i32
  br label %return

return:                                           ; preds = %RSA_decrypt.exit, %if.end4, %if.then3
  %retval.0 = phi i32 [ -1, %if.then3 ], [ %conv5, %if.end4 ], [ -1, %RSA_decrypt.exit ]
  ret i32 %retval.0
}